target datalayout = "e-m:e-p270:32:32-p271:32:32-p272:64:64-i64:64-i128:128-f80:128-n8:16:32:64-S128"
target triple = "x86_64-pc-linux-gnu"

%struct.completion_spec = type { ptr, ptr }
%struct._GtkTreeIter = type { i32, ptr, ptr, ptr }

@.str = private unnamed_addr constant [15 x i8] c"match-selected\00", align 1

; Function Attrs: nounwind uwtable
define void @dt_gtkentry_setup_completion(ptr noundef %0, ptr noundef %1) #0 {
  %3 = alloca ptr, align 8
  %4 = alloca ptr, align 8
  %5 = alloca ptr, align 8
  %6 = alloca ptr, align 8
  %7 = alloca %struct._GtkTreeIter, align 8
  %8 = alloca ptr, align 8
  store ptr %0, ptr %3, align 8, !tbaa !6
  store ptr %1, ptr %4, align 8, !tbaa !11
  call void @llvm.lifetime.start.p0(i64 8, ptr %5) #9
  %9 = call ptr @gtk_entry_completion_new()
  store ptr %9, ptr %5, align 8, !tbaa !13
  call void @llvm.lifetime.start.p0(i64 8, ptr %6) #9
  %10 = call ptr (i32, ...) @gtk_list_store_new(i32 noundef 3, i64 noundef 64, i64 noundef 64, i64 noundef 64)
  store ptr %10, ptr %6, align 8, !tbaa !15
  call void @llvm.lifetime.start.p0(i64 32, ptr %7) #9
  %11 = load ptr, ptr %5, align 8, !tbaa !13
  call void @gtk_entry_completion_set_text_column(ptr noundef %11, i32 noundef 1)
  %12 = load ptr, ptr %3, align 8, !tbaa !6
  %13 = load ptr, ptr %5, align 8, !tbaa !13
  call void @gtk_entry_set_completion(ptr noundef %12, ptr noundef %13)
  %14 = load ptr, ptr %5, align 8, !tbaa !13
  %15 = call ptr @g_type_check_instance_cast(ptr noundef %14, i64 noundef 80)
  %16 = call i64 @g_signal_connect_data(ptr noundef %15, ptr noundef @.str, ptr noundef @on_match_select, ptr noundef null, ptr noundef null, i32 noundef 0)
  call void @llvm.lifetime.start.p0(i64 8, ptr %8) #9
  %17 = load ptr, ptr %4, align 8, !tbaa !11
  store ptr %17, ptr %8, align 8, !tbaa !11
  br label %18

18:                                               ; preds = %39, %2
  %19 = load ptr, ptr %8, align 8, !tbaa !11
  %20 = icmp ne ptr %19, null
  br i1 %20, label %21, label %26

21:                                               ; preds = %18
  %22 = load ptr, ptr %8, align 8, !tbaa !11
  %23 = getelementptr inbounds nuw %struct.completion_spec, ptr %22, i32 0, i32 0
  %24 = load ptr, ptr %23, align 8, !tbaa !17
  %25 = icmp ne ptr %24, null
  br label %26

26:                                               ; preds = %21, %18
  %27 = phi i1 [ false, %18 ], [ %25, %21 ]
  br i1 %27, label %29, label %28

28:                                               ; preds = %26
  call void @llvm.lifetime.end.p0(i64 8, ptr %8) #9
  br label %42

29:                                               ; preds = %26
  %30 = load ptr, ptr %6, align 8, !tbaa !15
  call void @gtk_list_store_append(ptr noundef %30, ptr noundef %7)
  %31 = load ptr, ptr %6, align 8, !tbaa !15
  %32 = load ptr, ptr %8, align 8, !tbaa !11
  %33 = getelementptr inbounds nuw %struct.completion_spec, ptr %32, i32 0, i32 0
  %34 = load ptr, ptr %33, align 8, !tbaa !17
  %35 = load ptr, ptr %8, align 8, !tbaa !11
  %36 = getelementptr inbounds nuw %struct.completion_spec, ptr %35, i32 0, i32 1
  %37 = load ptr, ptr %36, align 8, !tbaa !20
  %38 = call ptr @dcgettext(ptr noundef null, ptr noundef %37, i32 noundef 5) #9
  call void (ptr, ptr, ...) @gtk_list_store_set(ptr noundef %31, ptr noundef %7, i32 noundef 0, ptr noundef %34, i32 noundef 1, ptr noundef %38, i32 noundef -1)
  br label %39

39:                                               ; preds = %29
  %40 = load ptr, ptr %8, align 8, !tbaa !11
  %41 = getelementptr inbounds nuw %struct.completion_spec, ptr %40, i32 1
  store ptr %41, ptr %8, align 8, !tbaa !11
  br label %18

42:                                               ; preds = %28
  %43 = load ptr, ptr %5, align 8, !tbaa !13
  %44 = load ptr, ptr %6, align 8, !tbaa !15
  %45 = call i64 @gtk_tree_model_get_type() #10
  %46 = call ptr @g_type_check_instance_cast(ptr noundef %44, i64 noundef %45)
  call void @gtk_entry_completion_set_model(ptr noundef %43, ptr noundef %46)
  %47 = load ptr, ptr %5, align 8, !tbaa !13
  call void @gtk_entry_completion_set_match_func(ptr noundef %47, ptr noundef @on_match_func, ptr noundef null, ptr noundef null)
  %48 = load ptr, ptr %6, align 8, !tbaa !15
  call void @g_object_unref(ptr noundef %48)
  call void @llvm.lifetime.end.p0(i64 32, ptr %7) #9
  call void @llvm.lifetime.end.p0(i64 8, ptr %6) #9
  call void @llvm.lifetime.end.p0(i64 8, ptr %5) #9
  ret void
}