; Function Attrs: nounwind uwtable
define void @dt_gtkentry_setup_completion(ptr noundef %0, ptr noundef readonly %1) local_unnamed_addr #0 {
  %3 = alloca %struct._GtkTreeIter, align 8
  %4 = tail call ptr @gtk_entry_completion_new() #12
  %5 = tail call ptr (i32, ...) @gtk_list_store_new(i32 noundef 3, i64 noundef 64, i64 noundef 64, i64 noundef 64) #12
  call void @llvm.lifetime.start.p0(i64 32, ptr nonnull %3) #12
  tail call void @gtk_entry_completion_set_text_column(ptr noundef %4, i32 noundef 1) #12
  tail call void @gtk_entry_set_completion(ptr noundef %0, ptr noundef %4) #12
  %6 = tail call ptr @g_type_check_instance_cast(ptr noundef %4, i64 noundef 80) #12
  %7 = tail call i64 @g_signal_connect_data(ptr noundef %6, ptr noundef nonnull @.str, ptr noundef nonnull @on_match_select, ptr noundef null, ptr noundef null, i32 noundef 0) #12
  %.not17 = icmp eq ptr %1, null
  br i1 %.not17, label %.critedge, label %.lr.ph.preheader

.lr.ph.preheader:                                 ; preds = %2
  %8 = load ptr, ptr %1, align 8, !tbaa !6
  %.not1620 = icmp eq ptr %8, null
  br i1 %.not1620, label %.critedge, label %.lr.ph

.critedge:                                        ; preds = %.lr.ph, %.lr.ph.preheader, %2
  %9 = tail call i64 @gtk_tree_model_get_type() #13
  %10 = call ptr @g_type_check_instance_cast(ptr noundef %5, i64 noundef %9) #12
  call void @gtk_entry_completion_set_model(ptr noundef %4, ptr noundef %10) #12
  call void @gtk_entry_completion_set_match_func(ptr noundef %4, ptr noundef nonnull @on_match_func, ptr noundef null, ptr noundef null) #12
  call void @g_object_unref(ptr noundef %5) #12
  call void @llvm.lifetime.end.p0(i64 32, ptr nonnull %3) #12
  ret void

.lr.ph:                                           ; preds = %.lr.ph.preheader, %.lr.ph
  %.01821 = phi ptr [ %15, %.lr.ph ], [ %1, %.lr.ph.preheader ]
  call void @gtk_list_store_append(ptr noundef %5, ptr noundef nonnull %3) #12
  %11 = load ptr, ptr %.01821, align 8, !tbaa !6
  %12 = getelementptr inbounds nuw i8, ptr %.01821, i64 8
  %13 = load ptr, ptr %12, align 8, !tbaa !12
  %14 = call ptr @dcgettext(ptr noundef null, ptr noundef %13, i32 noundef 5) #12
  call void (ptr, ptr, ...) @gtk_list_store_set(ptr noundef %5, ptr noundef nonnull %3, i32 noundef 0, ptr noundef %11, i32 noundef 1, ptr noundef %14, i32 noundef -1) #12
  %15 = getelementptr inbounds nuw i8, ptr %.01821, i64 16
  %16 = load ptr, ptr %15, align 8, !tbaa !6
  %.not16 = icmp eq ptr %16, null
  br i1 %.not16, label %.critedge, label %.lr.ph
}